; Function Attrs: nounwind uwtable
define i32 @SUNLinSolSpace(ptr noundef %0, ptr noundef %1, ptr noundef %2) local_unnamed_addr #4 {
  %4 = getelementptr inbounds nuw i8, ptr %0, i64 8
  %5 = load ptr, ptr %4, align 8, !tbaa !3
  %6 = getelementptr inbounds nuw i8, ptr %5, i64 96
  %7 = load ptr, ptr %6, align 8, !tbaa !26
  %.not = icmp eq ptr %7, null
  br i1 %.not, label %10, label %8

8:                                                ; preds = %3
  %9 = tail call i32 %7(ptr noundef nonnull %0, ptr noundef %1, ptr noundef %2) #7
  br label %11

10:                                               ; preds = %3
  store i64 0, ptr %1, align 8, !tbaa !27
  store i64 0, ptr %2, align 8, !tbaa !27
  br label %11

11:                                               ; preds = %10, %8
  %.0 = phi i32 [ %9, %8 ], [ 0, %10 ]
  ret i32 %.0
}